; Function Attrs: mustprogress nofree norecurse nosync nounwind willreturn memory(none) uwtable
define internal noundef double @trc_smpte_st428_1(double noundef %0) #0 {
  %2 = fcmp nsz olt double %0, 0.000000e+00
  br i1 %2, label %6, label %3

3:                                                ; preds = %1
  %4 = fmul nsz double %0, 0x3FED546BBCEEBE8C
  %5 = tail call nsz double @llvm.pow.f64(double %4, double 0x3FD89D89D89D89D8)
  br label %6

6:                                                ; preds = %1, %3
  %7 = phi nsz double [ %5, %3 ], [ 0.000000e+00, %1 ]
  ret double %7
}